target datalayout = "e-m:e-p270:32:32-p271:32:32-p272:64:64-i64:64-i128:128-f80:128-n8:16:32:64-S128"
target triple = "x86_64-pc-linux-gnu"

%struct.BackendGlobalData = type <{ ptr, ptr, i8, i8, i8, i8, i8, i8, i8, i8, i8, [3 x i8], i32, ptr, ptr, ptr, ptr, ptr, ptr, ptr, ptr, ptr, ptr, ptr, ptr, ptr, i32, %struct.jvmtiCapabilities, i8, [3 x i8], %struct.jvmtiEventCallbacks, ptr, ptr, ptr, ptr, ptr, ptr, ptr, i32, [4 x i8], ptr, i64, i32, [4 x i8], ptr, i32, i32, i8, i8, [6 x i8] }>
%struct.jvmtiCapabilities = type { i64, i64 }
%struct.jvmtiEventCallbacks = type { ptr, ptr, ptr, ptr, ptr, ptr, ptr, ptr, ptr, ptr, ptr, ptr, ptr, ptr, ptr, ptr, ptr, ptr, ptr, ptr, ptr, ptr, ptr, ptr, ptr, ptr, ptr, ptr, ptr, ptr, ptr, ptr, ptr, ptr, ptr, ptr, ptr, ptr, ptr }
%struct.jvmtiThreadInfo = type { ptr, i32, i8, ptr, ptr }
%struct.jvmtiInterface_1_ = type { ptr, ptr, ptr, ptr, ptr, ptr, ptr, ptr, ptr, ptr, ptr, ptr, ptr, ptr, ptr, ptr, ptr, ptr, ptr, ptr, ptr, ptr, ptr, ptr, ptr, ptr, ptr, ptr, ptr, ptr, ptr, ptr, ptr, ptr, ptr, ptr, ptr, ptr, ptr, ptr, ptr, ptr, ptr, ptr, ptr, ptr, ptr, ptr, ptr, ptr, ptr, ptr, ptr, ptr, ptr, ptr, ptr, ptr, ptr, ptr, ptr, ptr, ptr, ptr, ptr, ptr, ptr, ptr, ptr, ptr, ptr, ptr, ptr, ptr, ptr, ptr, ptr, ptr, ptr, ptr, ptr, ptr, ptr, ptr, ptr, ptr, ptr, ptr, ptr, ptr, ptr, ptr, ptr, ptr, ptr, ptr, ptr, ptr, ptr, ptr, ptr, ptr, ptr, ptr, ptr, ptr, ptr, ptr, ptr, ptr, ptr, ptr, ptr, ptr, ptr, ptr, ptr, ptr, ptr, ptr, ptr, ptr, ptr, ptr, ptr, ptr, ptr, ptr, ptr, ptr, ptr, ptr, ptr, ptr, ptr, ptr, ptr, ptr, ptr, ptr, ptr, ptr, ptr, ptr, ptr, ptr, ptr, ptr, ptr, ptr, ptr, ptr, ptr, ptr, ptr, ptr }

@vmDeathLock = internal global ptr null, align 8
@.str.4 = private unnamed_addr constant [25 x i8] c"JDWP Event Helper Thread\00", align 1
@.str.5 = private unnamed_addr constant [47 x i8] c"exitVmDeathLockOnError: error in JVMTI %s: %d\0A\00", align 1
@gdata = external global ptr, align 8
@.str.6 = private unnamed_addr constant [6 x i8] c"JVMTI\00", align 1
@.str.7 = private unnamed_addr constant [54 x i8] c"src/jdk.jdwp.agent/share/native/libjdwp/eventHelper.c\00", align 1
@.str.8 = private unnamed_addr constant [5 x i8] c"%s()\00", align 1
@.str.9 = private unnamed_addr constant [17 x i8] c"GetCurrentThread\00", align 1
@.str.10 = private unnamed_addr constant [6 x i8] c"ERROR\00", align 1
@.str.11 = private unnamed_addr constant [14 x i8] c"GetThreadInfo\00", align 1
@commandLoopEnteredVmDeathLock = internal global i8 0, align 1

; Function Attrs: nounwind uwtable
define hidden void @commandLoop_exitVmDeathLockOnError() #0 {
  %1 = alloca ptr, align 8
  %2 = alloca ptr, align 8
  %3 = alloca %struct.jvmtiThreadInfo, align 8
  %4 = alloca i32, align 4
  store ptr @.str.5, ptr %1, align 8
  store ptr null, ptr %2, align 8
  store i32 0, ptr %4, align 4
  %5 = load ptr, ptr @gdata, align 8
  %6 = getelementptr inbounds %struct.BackendGlobalData, ptr %5, i32 0, i32 38
  %7 = load i32, ptr %6, align 8
  %8 = and i32 %7, 4
  %9 = icmp ne i32 %8, 0
  br i1 %9, label %10, label %11

10:                                               ; preds = %0
  call void @log_message_begin(ptr noundef @.str.6, ptr noundef @.str.7, i32 noundef 793)
  call void (ptr, ...) @log_message_end(ptr noundef @.str.8, ptr noundef @.str.9)
  br label %12

11:                                               ; preds = %0
  br label %12

12:                                               ; preds = %11, %10
  %13 = load ptr, ptr @gdata, align 8
  %14 = getelementptr inbounds %struct.BackendGlobalData, ptr %13, i32 0, i32 0
  %15 = load ptr, ptr %14, align 8
  %16 = load ptr, ptr %15, align 8
  %17 = getelementptr inbounds %struct.jvmtiInterface_1_, ptr %16, i32 0, i32 17
  %18 = load ptr, ptr %17, align 8
  %19 = load ptr, ptr @gdata, align 8
  %20 = getelementptr inbounds %struct.BackendGlobalData, ptr %19, i32 0, i32 0
  %21 = load ptr, ptr %20, align 8
  %22 = call i32 %18(ptr noundef %21, ptr noundef %2)
  store i32 %22, ptr %4, align 4
  %23 = load i32, ptr %4, align 4
  %24 = icmp ne i32 %23, 0
  br i1 %24, label %25, label %36

25:                                               ; preds = %12
  %26 = load ptr, ptr @gdata, align 8
  %27 = getelementptr inbounds %struct.BackendGlobalData, ptr %26, i32 0, i32 38
  %28 = load i32, ptr %27, align 8
  %29 = and i32 %28, 128
  %30 = icmp ne i32 %29, 0
  br i1 %30, label %31, label %34

31:                                               ; preds = %25
  call void @log_message_begin(ptr noundef @.str.10, ptr noundef @.str.7, i32 noundef 796)
  %32 = load ptr, ptr %1, align 8
  %33 = load i32, ptr %4, align 4
  call void (ptr, ...) @log_message_end(ptr noundef %32, ptr noundef @.str.9, i32 noundef %33)
  br label %35

34:                                               ; preds = %25
  br label %35

35:                                               ; preds = %34, %31
  br label %81

36:                                               ; preds = %12
  %37 = load ptr, ptr @gdata, align 8
  %38 = getelementptr inbounds %struct.BackendGlobalData, ptr %37, i32 0, i32 38
  %39 = load i32, ptr %38, align 8
  %40 = and i32 %39, 4
  %41 = icmp ne i32 %40, 0
  br i1 %41, label %42, label %43

42:                                               ; preds = %36
  call void @log_message_begin(ptr noundef @.str.6, ptr noundef @.str.7, i32 noundef 800)
  call void (ptr, ...) @log_message_end(ptr noundef @.str.8, ptr noundef @.str.11)
  br label %44

43:                                               ; preds = %36
  br label %44

44:                                               ; preds = %43, %42
  %45 = load ptr, ptr @gdata, align 8
  %46 = getelementptr inbounds %struct.BackendGlobalData, ptr %45, i32 0, i32 0
  %47 = load ptr, ptr %46, align 8
  %48 = load ptr, ptr %47, align 8
  %49 = getelementptr inbounds %struct.jvmtiInterface_1_, ptr %48, i32 0, i32 8
  %50 = load ptr, ptr %49, align 8
  %51 = load ptr, ptr @gdata, align 8
  %52 = getelementptr inbounds %struct.BackendGlobalData, ptr %51, i32 0, i32 0
  %53 = load ptr, ptr %52, align 8
  %54 = load ptr, ptr %2, align 8
  %55 = call i32 %50(ptr noundef %53, ptr noundef %54, ptr noundef %3)
  store i32 %55, ptr %4, align 4
  %56 = load i32, ptr %4, align 4
  %57 = icmp ne i32 %56, 0
  br i1 %57, label %58, label %69

58:                                               ; preds = %44
  %59 = load ptr, ptr @gdata, align 8
  %60 = getelementptr inbounds %struct.BackendGlobalData, ptr %59, i32 0, i32 38
  %61 = load i32, ptr %60, align 8
  %62 = and i32 %61, 128
  %63 = icmp ne i32 %62, 0
  br i1 %63, label %64, label %67

64:                                               ; preds = %58
  call void @log_message_begin(ptr noundef @.str.10, ptr noundef @.str.7, i32 noundef 803)
  %65 = load ptr, ptr %1, align 8
  %66 = load i32, ptr %4, align 4
  call void (ptr, ...) @log_message_end(ptr noundef %65, ptr noundef @.str.11, i32 noundef %66)
  br label %68

67:                                               ; preds = %58
  br label %68

68:                                               ; preds = %67, %64
  br label %81

69:                                               ; preds = %44
  %70 = getelementptr inbounds %struct.jvmtiThreadInfo, ptr %3, i32 0, i32 0
  %71 = load ptr, ptr %70, align 8
  %72 = call i32 @strcmp(ptr noundef %71, ptr noundef @.str.4) #5
  %73 = icmp ne i32 %72, 0
  br i1 %73, label %74, label %75

74:                                               ; preds = %69
  br label %81

75:                                               ; preds = %69
  %76 = load volatile i8, ptr @commandLoopEnteredVmDeathLock, align 1
  %77 = zext i8 %76 to i32
  %78 = icmp eq i32 %77, 1
  br i1 %78, label %79, label %81

79:                                               ; preds = %75
  %80 = load ptr, ptr @vmDeathLock, align 8
  call void @debugMonitorExit(ptr noundef %80)
  store volatile i8 0, ptr @commandLoopEnteredVmDeathLock, align 1
  br label %81

81:                                               ; preds = %79, %75, %74, %68, %35
  ret void
}