; Function Attrs: nounwind uwtable
define hidden void @commandLoop_exitVmDeathLockOnError() local_unnamed_addr #0 {
  %1 = alloca ptr, align 8
  %2 = alloca %struct.jvmtiThreadInfo, align 8
  store ptr null, ptr %1, align 8
  %3 = load ptr, ptr @gdata, align 8
  %4 = getelementptr inbounds i8, ptr %3, i64 528
  %5 = load i32, ptr %4, align 8
  %6 = and i32 %5, 4
  %.not = icmp eq i32 %6, 0
  br i1 %.not, label %8, label %7

7:                                                ; preds = %0
  tail call void @log_message_begin(ptr noundef nonnull @.str.6, ptr noundef nonnull @.str.7, i32 noundef 793) #9
  tail call void (ptr, ...) @log_message_end(ptr noundef nonnull @.str.8, ptr noundef nonnull @.str.9) #9
  %.pre = load ptr, ptr @gdata, align 8
  br label %8

8:                                                ; preds = %0, %7
  %9 = phi ptr [ %3, %0 ], [ %.pre, %7 ]
  %10 = load ptr, ptr %9, align 8
  %11 = load ptr, ptr %10, align 8
  %12 = getelementptr inbounds i8, ptr %11, i64 136
  %13 = load ptr, ptr %12, align 8
  %14 = call i32 %13(ptr noundef nonnull %10, ptr noundef nonnull %1) #9
  %.not6 = icmp eq i32 %14, 0
  %15 = load ptr, ptr @gdata, align 8
  %16 = getelementptr inbounds i8, ptr %15, i64 528
  %17 = load i32, ptr %16, align 8
  br i1 %.not6, label %21, label %18

18:                                               ; preds = %8
  %19 = and i32 %17, 128
  %.not11 = icmp eq i32 %19, 0
  br i1 %.not11, label %46, label %20

20:                                               ; preds = %18
  call void @log_message_begin(ptr noundef nonnull @.str.10, ptr noundef nonnull @.str.7, i32 noundef 796) #9
  call void (ptr, ...) @log_message_end(ptr noundef nonnull @.str.5, ptr noundef nonnull @.str.9, i32 noundef %14) #9
  br label %46

21:                                               ; preds = %8
  %22 = and i32 %17, 4
  %.not7 = icmp eq i32 %22, 0
  br i1 %.not7, label %24, label %23

23:                                               ; preds = %21
  call void @log_message_begin(ptr noundef nonnull @.str.6, ptr noundef nonnull @.str.7, i32 noundef 800) #9
  call void (ptr, ...) @log_message_end(ptr noundef nonnull @.str.8, ptr noundef nonnull @.str.11) #9
  %.pre12 = load ptr, ptr @gdata, align 8
  br label %24

24:                                               ; preds = %21, %23
  %25 = phi ptr [ %15, %21 ], [ %.pre12, %23 ]
  %26 = load ptr, ptr %25, align 8
  %27 = load ptr, ptr %26, align 8
  %28 = getelementptr inbounds i8, ptr %27, i64 64
  %29 = load ptr, ptr %28, align 8
  %30 = load ptr, ptr %1, align 8
  %31 = call i32 %29(ptr noundef nonnull %26, ptr noundef %30, ptr noundef nonnull %2) #9
  %.not8 = icmp eq i32 %31, 0
  br i1 %.not8, label %38, label %32

32:                                               ; preds = %24
  %33 = load ptr, ptr @gdata, align 8
  %34 = getelementptr inbounds i8, ptr %33, i64 528
  %35 = load i32, ptr %34, align 8
  %36 = and i32 %35, 128
  %.not10 = icmp eq i32 %36, 0
  br i1 %.not10, label %46, label %37

37:                                               ; preds = %32
  call void @log_message_begin(ptr noundef nonnull @.str.10, ptr noundef nonnull @.str.7, i32 noundef 803) #9
  call void (ptr, ...) @log_message_end(ptr noundef nonnull @.str.5, ptr noundef nonnull @.str.11, i32 noundef %31) #9
  br label %46

38:                                               ; preds = %24
  %39 = load ptr, ptr %2, align 8
  %40 = call i32 @strcmp(ptr noundef nonnull dereferenceable(1) %39, ptr noundef nonnull dereferenceable(25) @.str.4) #10
  %.not9 = icmp eq i32 %40, 0
  br i1 %.not9, label %41, label %46

41:                                               ; preds = %38
  %42 = load volatile i8, ptr @commandLoopEnteredVmDeathLock, align 1
  %43 = icmp eq i8 %42, 1
  br i1 %43, label %44, label %46

44:                                               ; preds = %41
  %45 = load ptr, ptr @vmDeathLock, align 8
  call void @debugMonitorExit(ptr noundef %45) #9
  store volatile i8 0, ptr @commandLoopEnteredVmDeathLock, align 1
  br label %46

46:                                               ; preds = %38, %37, %32, %20, %18, %44, %41
  ret void
}